; Function Attrs: mustprogress uwtable
define hidden void @_ZN2dd11bdd_manager16alloc_free_nodesEj(ptr noundef nonnull align 8 dereferenceable(728) %this, i32 noundef %n) local_unnamed_addr #3 align 2 {
entry:
  %cmp30.not = icmp eq i32 %n, 0
  br i1 %cmp30.not, label %for.end, label %for.body.lr.ph

for.body.lr.ph:                                   ; preds = %entry
  %m_free_nodes = getelementptr inbounds i8, ptr %this, i64 112
  %m_nodes = getelementptr inbounds i8, ptr %this, i64 8
  br label %for.body

for.body:                                         ; preds = %for.body.lr.ph, %_ZN6vectorIN2dd11bdd_manager8bdd_nodeELb0EjE4backEv.exit
  %i.031 = phi i32 [ 0, %for.body.lr.ph ], [ %inc, %_ZN6vectorIN2dd11bdd_manager8bdd_nodeELb0EjE4backEv.exit ]
  %0 = load ptr, ptr %m_nodes, align 8
  %cmp.i = icmp eq ptr %0, null
  br i1 %cmp.i, label %_ZNK6vectorIN2dd11bdd_manager8bdd_nodeELb0EjE4sizeEv.exit, label %if.end.i

if.end.i:                                         ; preds = %for.body
  %arrayidx.i = getelementptr inbounds i8, ptr %0, i64 -4
  %1 = load i32, ptr %arrayidx.i, align 4
  br label %_ZNK6vectorIN2dd11bdd_manager8bdd_nodeELb0EjE4sizeEv.exit

_ZNK6vectorIN2dd11bdd_manager8bdd_nodeELb0EjE4sizeEv.exit: ; preds = %for.body, %if.end.i
  %retval.0.i = phi i32 [ %1, %if.end.i ], [ 0, %for.body ]
  %2 = load ptr, ptr %m_free_nodes, align 8
  %cmp.i2 = icmp eq ptr %2, null
  br i1 %cmp.i2, label %if.then.i, label %lor.lhs.false.i

lor.lhs.false.i:                                  ; preds = %_ZNK6vectorIN2dd11bdd_manager8bdd_nodeELb0EjE4sizeEv.exit
  %arrayidx.i3 = getelementptr inbounds i8, ptr %2, i64 -4
  %3 = load i32, ptr %arrayidx.i3, align 4
  %arrayidx4.i = getelementptr inbounds i8, ptr %2, i64 -8
  %4 = load i32, ptr %arrayidx4.i, align 4
  %cmp5.i = icmp eq i32 %3, %4
  br i1 %cmp5.i, label %if.then.i, label %_ZN6vectorIjLb0EjE9push_backEOj.exit

if.then.i:                                        ; preds = %lor.lhs.false.i, %_ZNK6vectorIN2dd11bdd_manager8bdd_nodeELb0EjE4sizeEv.exit
  tail call void @_ZN6vectorIjLb0EjE13expand_vectorEv(ptr noundef nonnull align 8 dereferenceable(8) %m_free_nodes)
  %.pre.i = load ptr, ptr %m_free_nodes, align 8
  %arrayidx8.phi.trans.insert.i = getelementptr inbounds i8, ptr %.pre.i, i64 -4
  %.pre1.i = load i32, ptr %arrayidx8.phi.trans.insert.i, align 4
  br label %_ZN6vectorIjLb0EjE9push_backEOj.exit

_ZN6vectorIjLb0EjE9push_backEOj.exit:             ; preds = %lor.lhs.false.i, %if.then.i
  %5 = phi i32 [ %.pre1.i, %if.then.i ], [ %3, %lor.lhs.false.i ]
  %6 = phi ptr [ %.pre.i, %if.then.i ], [ %2, %lor.lhs.false.i ]
  %idx.ext.i = zext i32 %5 to i64
  %add.ptr.i = getelementptr inbounds i32, ptr %6, i64 %idx.ext.i
  store i32 %retval.0.i, ptr %add.ptr.i, align 4
  %7 = load ptr, ptr %m_free_nodes, align 8
  %arrayidx10.i = getelementptr inbounds i8, ptr %7, i64 -4
  %8 = load i32, ptr %arrayidx10.i, align 4
  %inc.i = add i32 %8, 1
  store i32 %inc.i, ptr %arrayidx10.i, align 4
  %9 = load ptr, ptr %m_nodes, align 8
  %cmp.i5 = icmp eq ptr %9, null
  br i1 %cmp.i5, label %if.then.i15, label %lor.lhs.false.i6

lor.lhs.false.i6:                                 ; preds = %_ZN6vectorIjLb0EjE9push_backEOj.exit
  %arrayidx.i7 = getelementptr inbounds i8, ptr %9, i64 -4
  %10 = load i32, ptr %arrayidx.i7, align 4
  %arrayidx4.i8 = getelementptr inbounds i8, ptr %9, i64 -8
  %11 = load i32, ptr %arrayidx4.i8, align 4
  %cmp5.i9 = icmp eq i32 %10, %11
  br i1 %cmp5.i9, label %if.then.i15, label %_ZN6vectorIN2dd11bdd_manager8bdd_nodeELb0EjE9push_backEOS2_.exit

if.then.i15:                                      ; preds = %lor.lhs.false.i6, %_ZN6vectorIjLb0EjE9push_backEOj.exit
  tail call void @_ZN6vectorIN2dd11bdd_manager8bdd_nodeELb0EjE13expand_vectorEv(ptr noundef nonnull align 8 dereferenceable(8) %m_nodes)
  %.pre.i16 = load ptr, ptr %m_nodes, align 8
  %arrayidx8.phi.trans.insert.i17 = getelementptr inbounds i8, ptr %.pre.i16, i64 -4
  %.pre1.i18 = load i32, ptr %arrayidx8.phi.trans.insert.i17, align 4
  br label %_ZN6vectorIN2dd11bdd_manager8bdd_nodeELb0EjE9push_backEOS2_.exit

_ZN6vectorIN2dd11bdd_manager8bdd_nodeELb0EjE9push_backEOS2_.exit: ; preds = %lor.lhs.false.i6, %if.then.i15
  %12 = phi i32 [ %.pre1.i18, %if.then.i15 ], [ %10, %lor.lhs.false.i6 ]
  %13 = phi ptr [ %.pre.i16, %if.then.i15 ], [ %9, %lor.lhs.false.i6 ]
  %idx.ext.i11 = zext i32 %12 to i64
  %add.ptr.i12 = getelementptr inbounds %"struct.dd::bdd_manager::bdd_node", ptr %13, i64 %idx.ext.i11
  tail call void @llvm.memset.p0.i64(ptr noundef nonnull align 4 dereferenceable(16) %add.ptr.i12, i8 0, i64 16, i1 false)
  %14 = load ptr, ptr %m_nodes, align 8
  %arrayidx10.i13 = getelementptr inbounds i8, ptr %14, i64 -4
  %15 = load i32, ptr %arrayidx10.i13, align 4
  %inc.i14 = add i32 %15, 1
  store i32 %inc.i14, ptr %arrayidx10.i13, align 4
  %16 = load ptr, ptr %m_nodes, align 8
  %cmp.i19 = icmp eq ptr %16, null
  br i1 %cmp.i19, label %_ZN6vectorIN2dd11bdd_manager8bdd_nodeELb0EjE4backEv.exit, label %if.end.i.i

if.end.i.i:                                       ; preds = %_ZN6vectorIN2dd11bdd_manager8bdd_nodeELb0EjE9push_backEOS2_.exit
  %arrayidx.i21 = getelementptr inbounds i8, ptr %16, i64 -4
  %17 = load i32, ptr %arrayidx.i21, align 4
  %sub = add i32 %17, -1
  %18 = zext i32 %sub to i64
  br label %_ZN6vectorIN2dd11bdd_manager8bdd_nodeELb0EjE4backEv.exit

_ZN6vectorIN2dd11bdd_manager8bdd_nodeELb0EjE4backEv.exit: ; preds = %_ZN6vectorIN2dd11bdd_manager8bdd_nodeELb0EjE9push_backEOS2_.exit, %if.end.i.i
  %sub29 = phi i32 [ %sub, %if.end.i.i ], [ -1, %_ZN6vectorIN2dd11bdd_manager8bdd_nodeELb0EjE9push_backEOS2_.exit ]
  %retval.0.i.i = phi i64 [ %18, %if.end.i.i ], [ 4294967295, %_ZN6vectorIN2dd11bdd_manager8bdd_nodeELb0EjE9push_backEOS2_.exit ]
  %m_index = getelementptr inbounds %"struct.dd::bdd_manager::bdd_node", ptr %16, i64 %retval.0.i.i, i32 3
  store i32 %sub29, ptr %m_index, align 4
  %inc = add nuw i32 %i.031, 1
  %exitcond.not = icmp eq i32 %inc, %n
  br i1 %exitcond.not, label %for.end, label %for.body, !llvm.loop !12

for.end:                                          ; preds = %_ZN6vectorIN2dd11bdd_manager8bdd_nodeELb0EjE4backEv.exit, %entry
  %m_free_nodes10 = getelementptr inbounds i8, ptr %this, i64 112
  %19 = load ptr, ptr %m_free_nodes10, align 8
  %cmp.i.i24 = icmp eq ptr %19, null
  br i1 %cmp.i.i24, label %_ZN6vectorIjLb0EjE7reverseEv.exit, label %_ZNK6vectorIjLb0EjE4sizeEv.exit.i

_ZNK6vectorIjLb0EjE4sizeEv.exit.i:                ; preds = %for.end
  %arrayidx.i.i25 = getelementptr inbounds i8, ptr %19, i64 -4
  %20 = load i32, ptr %arrayidx.i.i25, align 4
  %cmp6.not.i = icmp ult i32 %20, 2
  br i1 %cmp6.not.i, label %_ZN6vectorIjLb0EjE7reverseEv.exit, label %for.body.preheader.i

for.body.preheader.i:                             ; preds = %_ZNK6vectorIjLb0EjE4sizeEv.exit.i
  %div5.i = lshr i32 %20, 1
  %wide.trip.count.i = zext nneg i32 %div5.i to i64
  br label %for.body.i

for.body.i:                                       ; preds = %for.body.i, %for.body.preheader.i
  %indvars.iv.i = phi i64 [ 0, %for.body.preheader.i ], [ %indvars.iv.next.i, %for.body.i ]
  %21 = load ptr, ptr %m_free_nodes10, align 8
  %arrayidx.i26 = getelementptr inbounds i32, ptr %21, i64 %indvars.iv.i
  %22 = trunc i64 %indvars.iv.i to i32
  %23 = xor i32 %22, -1
  %sub3.i = add i32 %20, %23
  %idxprom4.i = zext i32 %sub3.i to i64
  %arrayidx5.i = getelementptr inbounds i32, ptr %21, i64 %idxprom4.i
  %24 = load i32, ptr %arrayidx.i26, align 4
  %25 = load i32, ptr %arrayidx5.i, align 4
  store i32 %25, ptr %arrayidx.i26, align 4
  store i32 %24, ptr %arrayidx5.i, align 4
  %indvars.iv.next.i = add nuw nsw i64 %indvars.iv.i, 1
  %exitcond.not.i = icmp eq i64 %indvars.iv.next.i, %wide.trip.count.i
  br i1 %exitcond.not.i, label %_ZN6vectorIjLb0EjE7reverseEv.exit, label %for.body.i, !llvm.loop !13

_ZN6vectorIjLb0EjE7reverseEv.exit:                ; preds = %for.body.i, %for.end, %_ZNK6vectorIjLb0EjE4sizeEv.exit.i
  ret void
}